; ModuleID = '31/1606.c'
source_filename = "31/1606.c"
target datalayout = "e-m:e-p270:32:32-p271:32:32-p272:64:64-i64:64-f80:128-n8:16:32:64-S128"
target triple = "x86_64-pc-linux-gnu"

%struct.stu = type { [20 x i8], [20 x i8], i8, i32, [10 x i8], [20 x i8], %struct.stu* }

@.str = private unnamed_addr constant [3 x i8] c"%s\00", align 1
@.str.1 = private unnamed_addr constant [4 x i8] c"end\00", align 1
@.str.2 = private unnamed_addr constant [15 x i8] c"%s %c %d %s %s\00", align 1

; Function Attrs: noinline nounwind uwtable
define dso_local void @main() #0 {
  %1 = alloca %struct.stu*, align 8
  %2 = alloca %struct.stu*, align 8
  %3 = alloca i32, align 4
  store i32 0, i32* %3, align 4
  %4 = call noalias i8* @malloc(i64 100) #4
  %5 = bitcast i8* %4 to %struct.stu*
  store %struct.stu* %5, %struct.stu** %2, align 8
  store %struct.stu* %5, %struct.stu** %1, align 8
  %6 = load %struct.stu*, %struct.stu** %1, align 8
  %7 = getelementptr inbounds %struct.stu, %struct.stu* %6, i32 0, i32 0
  %8 = getelementptr inbounds [20 x i8], [20 x i8]* %7, i64 0, i64 0
  %9 = call i32 (i8*, ...) @__isoc99_scanf(i8* getelementptr inbounds ([3 x i8], [3 x i8]* @.str, i64 0, i64 0), i8* %8)
  %10 = load %struct.stu*, %struct.stu** %1, align 8
  %11 = getelementptr inbounds %struct.stu, %struct.stu* %10, i32 0, i32 0
  %12 = getelementptr inbounds [20 x i8], [20 x i8]* %11, i64 0, i64 0
  %13 = call i32 @strcmp(i8* %12, i8* getelementptr inbounds ([4 x i8], [4 x i8]* @.str.1, i64 0, i64 0)) #5
  %14 = icmp eq i32 %13, 0
  br i1 %14, label %15, label %16

15:                                               ; preds = %0
  store i32 -1, i32* %3, align 4
  store %struct.stu* null, %struct.stu** %2, align 8
  br label %31

16:                                               ; preds = %0
  %17 = load %struct.stu*, %struct.stu** %1, align 8
  %18 = getelementptr inbounds %struct.stu, %struct.stu* %17, i32 0, i32 1
  %19 = getelementptr inbounds [20 x i8], [20 x i8]* %18, i64 0, i64 0
  %20 = load %struct.stu*, %struct.stu** %1, align 8
  %21 = getelementptr inbounds %struct.stu, %struct.stu* %20, i32 0, i32 2
  %22 = load %struct.stu*, %struct.stu** %1, align 8
  %23 = getelementptr inbounds %struct.stu, %struct.stu* %22, i32 0, i32 3
  %24 = load %struct.stu*, %struct.stu** %1, align 8
  %25 = getelementptr inbounds %struct.stu, %struct.stu* %24, i32 0, i32 4
  %26 = getelementptr inbounds [10 x i8], [10 x i8]* %25, i64 0, i64 0
  %27 = load %struct.stu*, %struct.stu** %1, align 8
  %28 = getelementptr inbounds %struct.stu, %struct.stu* %27, i32 0, i32 5
  %29 = getelementptr inbounds [20 x i8], [20 x i8]* %28, i64 0, i64 0
  %30 = call i32 (i8*, ...) @__isoc99_scanf(i8* getelementptr inbounds ([15 x i8], [15 x i8]* @.str.2, i64 0, i64 0), i8* %19, i8* %21, i32* %23, i8* %26, i8* %29)
  br label %31

31:                                               ; preds = %16, %15
  br label %32

32:                                               ; preds = %61, %31
  %33 = load i32, i32* %3, align 4
  %34 = icmp sge i32 %33, 0
  br i1 %34, label %35, label %76

35:                                               ; preds = %32
  %36 = load i32, i32* %3, align 4
  %37 = add nsw i32 %36, 1
  store i32 %37, i32* %3, align 4
  %38 = load i32, i32* %3, align 4
  %39 = icmp eq i32 %38, 1
  br i1 %39, label %40, label %43

40:                                               ; preds = %35
  %41 = load %struct.stu*, %struct.stu** %1, align 8
  %42 = getelementptr inbounds %struct.stu, %struct.stu* %41, i32 0, i32 6
  store %struct.stu* null, %struct.stu** %42, align 8
  br label %47

43:                                               ; preds = %35
  %44 = load %struct.stu*, %struct.stu** %2, align 8
  %45 = load %struct.stu*, %struct.stu** %1, align 8
  %46 = getelementptr inbounds %struct.stu, %struct.stu* %45, i32 0, i32 6
  store %struct.stu* %44, %struct.stu** %46, align 8
  br label %47

47:                                               ; preds = %43, %40
  %48 = load %struct.stu*, %struct.stu** %1, align 8
  store %struct.stu* %48, %struct.stu** %2, align 8
  %49 = call noalias i8* @malloc(i64 100) #4
  %50 = bitcast i8* %49 to %struct.stu*
  store %struct.stu* %50, %struct.stu** %1, align 8
  %51 = load %struct.stu*, %struct.stu** %1, align 8
  %52 = getelementptr inbounds %struct.stu, %struct.stu* %51, i32 0, i32 0
  %53 = getelementptr inbounds [20 x i8], [20 x i8]* %52, i64 0, i64 0
  %54 = call i32 (i8*, ...) @__isoc99_scanf(i8* getelementptr inbounds ([3 x i8], [3 x i8]* @.str, i64 0, i64 0), i8* %53)
  %55 = load %struct.stu*, %struct.stu** %1, align 8
  %56 = getelementptr inbounds %struct.stu, %struct.stu* %55, i32 0, i32 0
  %57 = getelementptr inbounds [20 x i8], [20 x i8]* %56, i64 0, i64 0
  %58 = call i32 @strcmp(i8* %57, i8* getelementptr inbounds ([4 x i8], [4 x i8]* @.str.1, i64 0, i64 0)) #5
  %59 = icmp eq i32 %58, 0
  br i1 %59, label %60, label %61

60:                                               ; preds = %47
  br label %76

61:                                               ; preds = %47
  %62 = load %struct.stu*, %struct.stu** %1, align 8
  %63 = getelementptr inbounds %struct.stu, %struct.stu* %62, i32 0, i32 1
  %64 = getelementptr inbounds [20 x i8], [20 x i8]* %63, i64 0, i64 0
  %65 = load %struct.stu*, %struct.stu** %1, align 8
  %66 = getelementptr inbounds %struct.stu, %struct.stu* %65, i32 0, i32 2
  %67 = load %struct.stu*, %struct.stu** %1, align 8
  %68 = getelementptr inbounds %struct.stu, %struct.stu* %67, i32 0, i32 3
  %69 = load %struct.stu*, %struct.stu** %1, align 8
  %70 = getelementptr inbounds %struct.stu, %struct.stu* %69, i32 0, i32 4
  %71 = getelementptr inbounds [10 x i8], [10 x i8]* %70, i64 0, i64 0
  %72 = load %struct.stu*, %struct.stu** %1, align 8
  %73 = getelementptr inbounds %struct.stu, %struct.stu* %72, i32 0, i32 5
  %74 = getelementptr inbounds [20 x i8], [20 x i8]* %73, i64 0, i64 0
  %75 = call i32 (i8*, ...) @__isoc99_scanf(i8* getelementptr inbounds ([15 x i8], [15 x i8]* @.str.2, i64 0, i64 0), i8* %64, i8* %66, i32* %68, i8* %71, i8* %74)
  br label %32

76:                                               ; preds = %60, %32
  br label %77

77:                                               ; preds = %80, %76
  %78 = load %struct.stu*, %struct.stu** %2, align 8
  %79 = icmp ne %struct.stu* %78, null
  br i1 %79, label %80, label %104

80:                                               ; preds = %77
  %81 = load %struct.stu*, %struct.stu** %2, align 8
  %82 = getelementptr inbounds %struct.stu, %struct.stu* %81, i32 0, i32 0
  %83 = getelementptr inbounds [20 x i8], [20 x i8]* %82, i64 0, i64 0
  %84 = load %struct.stu*, %struct.stu** %2, align 8
  %85 = getelementptr inbounds %struct.stu, %struct.stu* %84, i32 0, i32 1
  %86 = getelementptr inbounds [20 x i8], [20 x i8]* %85, i64 0, i64 0
  %87 = load %struct.stu*, %struct.stu** %2, align 8
  %88 = getelementptr inbounds %struct.stu, %struct.stu* %87, i32 0, i32 2
  %89 = load i8, i8* %88, align 8
  %90 = sext i8 %89 to i32
  %91 = load %struct.stu*, %struct.stu** %2, align 8
  %92 = getelementptr inbounds %struct.stu, %struct.stu* %91, i32 0, i32 3
  %93 = load i32, i32* %92, align 4
  %94 = load %struct.stu*, %struct.stu** %2, align 8
  %95 = getelementptr inbounds %struct.stu, %struct.stu* %94, i32 0, i32 4
  %96 = getelementptr inbounds [10 x i8], [10 x i8]* %95, i64 0, i64 0
  %97 = load %struct.stu*, %struct.stu** %2, align 8
  %98 = getelementptr inbounds %struct.stu, %struct.stu* %97, i32 0, i32 5
  %99 = getelementptr inbounds [20 x i8], [20 x i8]* %98, i64 0, i64 0
  %100 = call i32 (i8*, ...) @printf(i8* inttoptr (i64 100 to i8*), i8* %83, i8* %86, i32 %90, i32 %93, i8* %96, i8* %99)
  %101 = load %struct.stu*, %struct.stu** %2, align 8
  %102 = getelementptr inbounds %struct.stu, %struct.stu* %101, i32 0, i32 6
  %103 = load %struct.stu*, %struct.stu** %102, align 8
  store %struct.stu* %103, %struct.stu** %2, align 8
  br label %77

104:                                              ; preds = %77
  ret void
}

; Function Attrs: nounwind
declare dso_local noalias i8* @malloc(i64) #1

declare dso_local i32 @__isoc99_scanf(i8*, ...) #2

; Function Attrs: nounwind readonly
declare dso_local i32 @strcmp(i8*, i8*) #3

declare dso_local i32 @printf(i8*, ...) #2


!llvm.module.flags = !{!0}
!llvm.ident = !{!1}

!0 = !{i32 1, !"wchar_size", i32 4}
!1 = !{!"clang version 10.0.0-4ubuntu1 "}
